target datalayout = "e-m:e-p270:32:32-p271:32:32-p272:64:64-i64:64-i128:128-f80:128-n8:16:32:64-S128"
target triple = "x86_64-pc-linux-gnu"

%struct.TiltandshiftContext = type { ptr, i32, i32, i32, i32, i32, i32, [4 x ptr], [4 x i32], i64, ptr, ptr, ptr }
%struct.AVChannelLayout = type { i32, i32, %union.anon.1, ptr }
%union.anon.1 = type { i64 }
%struct.AVRational = type { i32, i32 }
%struct.AVFrame = type { [8 x ptr], [8 x i32], ptr, i32, i32, i32, i32, i32, %struct.AVRational, i64, i64, %struct.AVRational, i32, ptr, i32, i32, [8 x ptr], ptr, i32, ptr, i32, i32, i32, i32, i32, i32, i32, i64, ptr, i32, ptr, ptr, i64, i64, i64, i64, ptr, %struct.AVChannelLayout, i64 }

; Function Attrs: nounwind uwtable
define internal void @list_remove_head(ptr noundef %0) #1 {
  %2 = alloca ptr, align 8
  %3 = alloca ptr, align 8
  store ptr %0, ptr %2, align 8, !tbaa !22
  call void @llvm.lifetime.start.p0(i64 8, ptr %3) #6
  %4 = load ptr, ptr %2, align 8, !tbaa !22
  %5 = getelementptr inbounds nuw %struct.TiltandshiftContext, ptr %4, i32 0, i32 10
  %6 = load ptr, ptr %5, align 8, !tbaa !24
  store ptr %6, ptr %3, align 8, !tbaa !33
  %7 = load ptr, ptr %3, align 8, !tbaa !33
  %8 = icmp ne ptr %7, null
  br i1 %8, label %9, label %15

9:                                                ; preds = %1
  %10 = load ptr, ptr %3, align 8, !tbaa !33
  %11 = getelementptr inbounds nuw %struct.AVFrame, ptr %10, i32 0, i32 13
  %12 = load ptr, ptr %11, align 8, !tbaa !49
  %13 = load ptr, ptr %2, align 8, !tbaa !22
  %14 = getelementptr inbounds nuw %struct.TiltandshiftContext, ptr %13, i32 0, i32 10
  store ptr %12, ptr %14, align 8, !tbaa !24
  call void @av_frame_free(ptr noundef %3)
  br label %15

15:                                               ; preds = %9, %1
  %16 = load ptr, ptr %2, align 8, !tbaa !22
  %17 = getelementptr inbounds nuw %struct.TiltandshiftContext, ptr %16, i32 0, i32 9
  %18 = load i64, ptr %17, align 8, !tbaa !46
  %19 = add i64 %18, -1
  store i64 %19, ptr %17, align 8, !tbaa !46
  call void @llvm.lifetime.end.p0(i64 8, ptr %3) #6
  ret void
}