; Function Attrs: nounwind uwtable
define internal fastcc void @list_remove_head(ptr noundef captures(none) %0) unnamed_addr #1 {
  %2 = alloca ptr, align 8
  call void @llvm.lifetime.start.p0(i64 8, ptr nonnull %2) #6
  %3 = getelementptr inbounds nuw i8, ptr %0, i64 88
  %4 = load ptr, ptr %3, align 8, !tbaa !20
  store ptr %4, ptr %2, align 8, !tbaa !51
  %.not = icmp eq ptr %4, null
  br i1 %.not, label %8, label %5

5:                                                ; preds = %1
  %6 = getelementptr inbounds nuw i8, ptr %4, i64 168
  %7 = load ptr, ptr %6, align 8, !tbaa !40
  store ptr %7, ptr %3, align 8, !tbaa !20
  call void @av_frame_free(ptr noundef nonnull %2) #6
  br label %8

8:                                                ; preds = %5, %1
  %9 = getelementptr inbounds nuw i8, ptr %0, i64 80
  %10 = load i64, ptr %9, align 8, !tbaa !46
  %11 = add i64 %10, -1
  store i64 %11, ptr %9, align 8, !tbaa !46
  call void @llvm.lifetime.end.p0(i64 8, ptr nonnull %2) #6
  ret void
}